target datalayout = "e-m:e-p270:32:32-p271:32:32-p272:64:64-i64:64-i128:128-f80:128-n8:16:32:64-S128"
target triple = "x86_64-pc-linux-gnu"

%struct.CodedBitstreamType = type { i32, ptr, i64, ptr, ptr, ptr, ptr, ptr, ptr, ptr, ptr }
%struct.CodedBitstreamContext = type { ptr, ptr, ptr, ptr, i32, i32, i32, ptr, ptr, ptr, ptr, i64 }

; Function Attrs: cold nounwind optsize uwtable
define void @ff_cbs_close(ptr noundef %0) #0 {
  %2 = alloca ptr, align 8
  %3 = alloca ptr, align 8
  %4 = alloca i32, align 4
  store ptr %0, ptr %2, align 8, !tbaa !4
  call void @llvm.lifetime.start.p0(i64 8, ptr %3) #13
  %5 = load ptr, ptr %2, align 8, !tbaa !4
  %6 = load ptr, ptr %5, align 8, !tbaa !22
  store ptr %6, ptr %3, align 8, !tbaa !22
  %7 = load ptr, ptr %3, align 8, !tbaa !22
  %8 = icmp ne ptr %7, null
  br i1 %8, label %10, label %9

9:                                                ; preds = %1
  store i32 1, ptr %4, align 4
  br label %46

10:                                               ; preds = %1
  %11 = load ptr, ptr %3, align 8, !tbaa !22
  %12 = getelementptr inbounds nuw %struct.CodedBitstreamContext, ptr %11, i32 0, i32 1
  %13 = load ptr, ptr %12, align 8, !tbaa !28
  %14 = getelementptr inbounds nuw %struct.CodedBitstreamType, ptr %13, i32 0, i32 10
  %15 = load ptr, ptr %14, align 8, !tbaa !38
  %16 = icmp ne ptr %15, null
  br i1 %16, label %17, label %24

17:                                               ; preds = %10
  %18 = load ptr, ptr %3, align 8, !tbaa !22
  %19 = getelementptr inbounds nuw %struct.CodedBitstreamContext, ptr %18, i32 0, i32 1
  %20 = load ptr, ptr %19, align 8, !tbaa !28
  %21 = getelementptr inbounds nuw %struct.CodedBitstreamType, ptr %20, i32 0, i32 10
  %22 = load ptr, ptr %21, align 8, !tbaa !38
  %23 = load ptr, ptr %3, align 8, !tbaa !22
  call void %22(ptr noundef %23)
  br label %24

24:                                               ; preds = %17, %10
  %25 = load ptr, ptr %3, align 8, !tbaa !22
  %26 = getelementptr inbounds nuw %struct.CodedBitstreamContext, ptr %25, i32 0, i32 10
  call void @av_freep(ptr noundef %26)
  %27 = load ptr, ptr %3, align 8, !tbaa !22
  %28 = getelementptr inbounds nuw %struct.CodedBitstreamContext, ptr %27, i32 0, i32 1
  %29 = load ptr, ptr %28, align 8, !tbaa !28
  %30 = getelementptr inbounds nuw %struct.CodedBitstreamType, ptr %29, i32 0, i32 1
  %31 = load ptr, ptr %30, align 8, !tbaa !31
  %32 = icmp ne ptr %31, null
  br i1 %32, label %33, label %42

33:                                               ; preds = %24
  %34 = load ptr, ptr %3, align 8, !tbaa !22
  %35 = getelementptr inbounds nuw %struct.CodedBitstreamContext, ptr %34, i32 0, i32 2
  %36 = load ptr, ptr %35, align 8, !tbaa !30
  %37 = icmp ne ptr %36, null
  br i1 %37, label %38, label %42

38:                                               ; preds = %33
  %39 = load ptr, ptr %3, align 8, !tbaa !22
  %40 = getelementptr inbounds nuw %struct.CodedBitstreamContext, ptr %39, i32 0, i32 2
  %41 = load ptr, ptr %40, align 8, !tbaa !30
  call void @av_opt_free(ptr noundef %41)
  br label %42

42:                                               ; preds = %38, %33, %24
  %43 = load ptr, ptr %3, align 8, !tbaa !22
  %44 = getelementptr inbounds nuw %struct.CodedBitstreamContext, ptr %43, i32 0, i32 2
  call void @av_freep(ptr noundef %44)
  %45 = load ptr, ptr %2, align 8, !tbaa !4
  call void @av_freep(ptr noundef %45)
  store i32 0, ptr %4, align 4
  br label %46

46:                                               ; preds = %42, %9
  call void @llvm.lifetime.end.p0(i64 8, ptr %3) #13
  %47 = load i32, ptr %4, align 4
  switch i32 %47, label %49 [
    i32 0, label %48
    i32 1, label %48
  ]

48:                                               ; preds = %46, %46
  ret void

49:                                               ; preds = %46
  unreachable
}