; Function Attrs: cold nounwind optsize uwtable
define void @ff_cbs_close(ptr noundef %0) local_unnamed_addr #0 {
  %2 = load ptr, ptr %0, align 8, !tbaa !17
  %.not = icmp eq ptr %2, null
  br i1 %.not, label %20, label %3

3:                                                ; preds = %1
  %4 = getelementptr inbounds nuw i8, ptr %2, i64 8
  %5 = load ptr, ptr %4, align 8, !tbaa !23
  %6 = getelementptr inbounds nuw i8, ptr %5, i64 80
  %7 = load ptr, ptr %6, align 8, !tbaa !33
  %.not13 = icmp eq ptr %7, null
  br i1 %.not13, label %9, label %8

8:                                                ; preds = %3
  tail call void %7(ptr noundef nonnull %2) #10
  br label %9

9:                                                ; preds = %8, %3
  %10 = getelementptr inbounds nuw i8, ptr %2, i64 72
  tail call void @av_freep(ptr noundef nonnull %10) #10
  %11 = load ptr, ptr %4, align 8, !tbaa !23
  %12 = getelementptr inbounds nuw i8, ptr %11, i64 8
  %13 = load ptr, ptr %12, align 8, !tbaa !26
  %.not14 = icmp eq ptr %13, null
  br i1 %.not14, label %18, label %14

14:                                               ; preds = %9
  %15 = getelementptr inbounds nuw i8, ptr %2, i64 16
  %16 = load ptr, ptr %15, align 8, !tbaa !25
  %.not15 = icmp eq ptr %16, null
  br i1 %.not15, label %18, label %17

17:                                               ; preds = %14
  tail call void @av_opt_free(ptr noundef nonnull %16) #10
  br label %18

18:                                               ; preds = %17, %14, %9
  %19 = getelementptr inbounds nuw i8, ptr %2, i64 16
  tail call void @av_freep(ptr noundef nonnull %19) #10
  tail call void @av_freep(ptr noundef nonnull %0) #10
  br label %20

20:                                               ; preds = %1, %18
  ret void
}